target datalayout = "e-m:e-p270:32:32-p271:32:32-p272:64:64-i64:64-i128:128-f80:128-n8:16:32:64-S128"
target triple = "x86_64-pc-linux-gnu"

%struct.Rwr_Node_t_ = type <{ i32, i32, i16, i16, i16, i32, [6 x i8], ptr, ptr, ptr }>
%struct.Rwr_Man_t_ = type { i32, ptr, ptr, ptr, ptr, ptr, ptr, ptr, ptr, ptr, ptr, ptr, i32, i32, i32, i32, i32, ptr, ptr, ptr, ptr, ptr, i32, i32, i32, i32, i32, [222 x i32], i32, i32, i32, i64, i64, i64, i64, i64, i64, i64 }

; Function Attrs: nounwind uwtable
define internal ptr @Rwr_Regular(ptr noundef %0) #0 {
  %2 = alloca ptr, align 8
  store ptr %0, ptr %2, align 8
  %3 = load ptr, ptr %2, align 8
  %4 = ptrtoint ptr %3 to i64
  %5 = and i64 %4, -2
  %6 = inttoptr i64 %5 to ptr
  ret ptr %6
}

; Function Attrs: nounwind uwtable
define void @Rwr_Trav2_rec(ptr noundef %0, ptr noundef %1, ptr noundef %2) #0 {
  %4 = alloca ptr, align 8
  %5 = alloca ptr, align 8
  %6 = alloca ptr, align 8
  store ptr %0, ptr %4, align 8
  store ptr %1, ptr %5, align 8
  store ptr %2, ptr %6, align 8
  %7 = load ptr, ptr %5, align 8
  %8 = getelementptr inbounds %struct.Rwr_Node_t_, ptr %7, i32 0, i32 5
  %9 = load i32, ptr %8, align 2
  %10 = lshr i32 %9, 30
  %11 = and i32 %10, 1
  %12 = icmp ne i32 %11, 0
  br i1 %12, label %21, label %13

13:                                               ; preds = %3
  %14 = load ptr, ptr %5, align 8
  %15 = getelementptr inbounds %struct.Rwr_Node_t_, ptr %14, i32 0, i32 1
  %16 = load i32, ptr %15, align 4
  %17 = load ptr, ptr %4, align 8
  %18 = getelementptr inbounds %struct.Rwr_Man_t_, ptr %17, i32 0, i32 12
  %19 = load i32, ptr %18, align 8
  %20 = icmp eq i32 %16, %19
  br i1 %20, label %21, label %22

21:                                               ; preds = %13, %3
  br label %43

22:                                               ; preds = %13
  %23 = load ptr, ptr %4, align 8
  %24 = getelementptr inbounds %struct.Rwr_Man_t_, ptr %23, i32 0, i32 12
  %25 = load i32, ptr %24, align 8
  %26 = load ptr, ptr %5, align 8
  %27 = getelementptr inbounds %struct.Rwr_Node_t_, ptr %26, i32 0, i32 1
  store i32 %25, ptr %27, align 4
  %28 = load ptr, ptr %6, align 8
  %29 = load i32, ptr %28, align 4
  %30 = add nsw i32 %29, 1
  store i32 %30, ptr %28, align 4
  %31 = load ptr, ptr %4, align 8
  %32 = load ptr, ptr %5, align 8
  %33 = getelementptr inbounds %struct.Rwr_Node_t_, ptr %32, i32 0, i32 7
  %34 = load ptr, ptr %33, align 8
  %35 = call ptr @Rwr_Regular(ptr noundef %34)
  %36 = load ptr, ptr %6, align 8
  call void @Rwr_Trav2_rec(ptr noundef %31, ptr noundef %35, ptr noundef %36)
  %37 = load ptr, ptr %4, align 8
  %38 = load ptr, ptr %5, align 8
  %39 = getelementptr inbounds %struct.Rwr_Node_t_, ptr %38, i32 0, i32 8
  %40 = load ptr, ptr %39, align 8
  %41 = call ptr @Rwr_Regular(ptr noundef %40)
  %42 = load ptr, ptr %6, align 8
  call void @Rwr_Trav2_rec(ptr noundef %37, ptr noundef %41, ptr noundef %42)
  br label %43

43:                                               ; preds = %22, %21
  ret void
}