; Function Attrs: nofree nosync nounwind memory(readwrite, inaccessiblemem: none) uwtable
define void @Rwr_Trav2_rec(ptr noundef readonly captures(none) %0, ptr noundef captures(none) %1, ptr noundef captures(none) %2) local_unnamed_addr #0 {
  %4 = getelementptr inbounds nuw i8, ptr %1, i64 14
  %5 = load i32, ptr %4, align 2
  %6 = and i32 %5, 1073741824
  %.not14 = icmp eq i32 %6, 0
  br i1 %.not14, label %.lr.ph, label %tailrecurse._crit_edge

.lr.ph:                                           ; preds = %3
  %7 = getelementptr inbounds nuw i8, ptr %0, i64 96
  br label %8

8:                                                ; preds = %.lr.ph, %tailrecurse
  %.tr1215 = phi ptr [ %1, %.lr.ph ], [ %24, %tailrecurse ]
  %9 = getelementptr inbounds nuw i8, ptr %.tr1215, i64 4
  %10 = load i32, ptr %9, align 4
  %11 = load i32, ptr %7, align 8
  %12 = icmp eq i32 %10, %11
  br i1 %12, label %tailrecurse._crit_edge, label %tailrecurse

tailrecurse:                                      ; preds = %8
  store i32 %11, ptr %9, align 4
  %13 = load i32, ptr %2, align 4
  %14 = add nsw i32 %13, 1
  store i32 %14, ptr %2, align 4
  %15 = getelementptr inbounds nuw i8, ptr %.tr1215, i64 24
  %16 = load ptr, ptr %15, align 8
  %17 = ptrtoint ptr %16 to i64
  %18 = and i64 %17, -2
  %19 = inttoptr i64 %18 to ptr
  tail call void @Rwr_Trav2_rec(ptr noundef nonnull %0, ptr noundef %19, ptr noundef nonnull %2)
  %20 = getelementptr inbounds nuw i8, ptr %.tr1215, i64 32
  %21 = load ptr, ptr %20, align 8
  %22 = ptrtoint ptr %21 to i64
  %23 = and i64 %22, -2
  %24 = inttoptr i64 %23 to ptr
  %25 = getelementptr inbounds nuw i8, ptr %24, i64 14
  %26 = load i32, ptr %25, align 2
  %27 = and i32 %26, 1073741824
  %.not = icmp eq i32 %27, 0
  br i1 %.not, label %8, label %tailrecurse._crit_edge

tailrecurse._crit_edge:                           ; preds = %8, %tailrecurse, %3
  ret void
}